; Function Attrs: mustprogress uwtable
define dso_local noundef i32 @_ZN24cmCPackExternalGenerator32InstallProjectViaInstallCommandsEbRKNSt7__cxx1112basic_stringIcSt11char_traitsIcESaIcEEE(ptr noundef nonnull align 8 dereferenceable(368) %0, i1 noundef zeroext %1, ptr noundef nonnull align 8 dereferenceable(32) %2) unnamed_addr #3 align 2 {
  %4 = tail call noundef zeroext i1 @_ZNK24cmCPackExternalGenerator14StagingEnabledEv(ptr noundef nonnull align 8 dereferenceable(368) %0)
  br i1 %4, label %5, label %7

5:                                                ; preds = %3
  %6 = tail call noundef i32 @_ZN16cmCPackGenerator32InstallProjectViaInstallCommandsEbRKNSt7__cxx1112basic_stringIcSt11char_traitsIcESaIcEEE(ptr noundef nonnull align 8 dereferenceable(360) %0, i1 noundef zeroext %1, ptr noundef nonnull align 8 dereferenceable(32) %2)
  br label %7

7:                                                ; preds = %3, %5
  %.0 = phi i32 [ %6, %5 ], [ 1, %3 ]
  ret i32 %.0
}